target datalayout = "e-m:e-p270:32:32-p271:32:32-p272:64:64-i64:64-i128:128-f80:128-n8:16:32:64-S128"
target triple = "x86_64-pc-linux-gnu"

%struct.boxf = type { %struct.pointf_s, %struct.pointf_s }
%struct.pointf_s = type { double, double }
%struct.sgraph = type { i32, i32, i32, i32, ptr, ptr }
%struct.sedge = type { double, i32, i32, i32 }
%struct.snode = type { i32, i32, ptr, ptr, i16, i16, [2 x ptr], ptr, i32, i8 }
%struct.cell = type { i32, i32, [6 x ptr], i32, ptr, %struct.boxf }

; Function Attrs: nounwind uwtable
define internal void @updateWt(ptr noundef %0, double noundef %1) #0 {
  %3 = alloca ptr, align 8
  %4 = alloca double, align 8
  store ptr %0, ptr %3, align 8, !tbaa !9
  store double %1, ptr %4, align 8, !tbaa !33
  %5 = load ptr, ptr %3, align 8, !tbaa !9
  %6 = getelementptr inbounds nuw %struct.sedge, ptr %5, i32 0, i32 1
  %7 = load i32, ptr %6, align 8, !tbaa !40
  %8 = add nsw i32 %7, 1
  store i32 %8, ptr %6, align 8, !tbaa !40
  %9 = load ptr, ptr %3, align 8, !tbaa !9
  %10 = getelementptr inbounds nuw %struct.sedge, ptr %9, i32 0, i32 1
  %11 = load i32, ptr %10, align 8, !tbaa !40
  %12 = sitofp i32 %11 to double
  %13 = load double, ptr %4, align 8, !tbaa !33
  %14 = fcmp ogt double %12, %13
  br i1 %14, label %15, label %22

15:                                               ; preds = %2
  %16 = load ptr, ptr %3, align 8, !tbaa !9
  %17 = getelementptr inbounds nuw %struct.sedge, ptr %16, i32 0, i32 1
  store i32 0, ptr %17, align 8, !tbaa !40
  %18 = load ptr, ptr %3, align 8, !tbaa !9
  %19 = getelementptr inbounds nuw %struct.sedge, ptr %18, i32 0, i32 0
  %20 = load double, ptr %19, align 8, !tbaa !41
  %21 = fadd double %20, 1.638400e+04
  store double %21, ptr %19, align 8, !tbaa !41
  br label %22

22:                                               ; preds = %15, %2
  ret void
}

; Function Attrs: nounwind uwtable
define void @updateWts(ptr noundef %0, ptr noundef %1, ptr noundef %2) #0 {
  %4 = alloca ptr, align 8
  %5 = alloca ptr, align 8
  %6 = alloca ptr, align 8
  %7 = alloca i32, align 4
  %8 = alloca ptr, align 8
  %9 = alloca i32, align 4
  %10 = alloca double, align 8
  %11 = alloca double, align 8
  %12 = alloca double, align 8
  store ptr %0, ptr %4, align 8, !tbaa !3
  store ptr %1, ptr %5, align 8, !tbaa !7
  store ptr %2, ptr %6, align 8, !tbaa !9
  call void @llvm.lifetime.start.p0(i64 4, ptr %7) #10
  call void @llvm.lifetime.start.p0(i64 8, ptr %8) #10
  call void @llvm.lifetime.start.p0(i64 4, ptr %9) #10
  %13 = load ptr, ptr %4, align 8, !tbaa !3
  %14 = getelementptr inbounds nuw %struct.sgraph, ptr %13, i32 0, i32 4
  %15 = load ptr, ptr %14, align 8, !tbaa !11
  %16 = load ptr, ptr %6, align 8, !tbaa !9
  %17 = getelementptr inbounds nuw %struct.sedge, ptr %16, i32 0, i32 2
  %18 = load i32, ptr %17, align 4, !tbaa !15
  %19 = sext i32 %18 to i64
  %20 = getelementptr inbounds %struct.snode, ptr %15, i64 %19
  %21 = getelementptr inbounds nuw %struct.snode, ptr %20, i32 0, i32 9
  %22 = load i8, ptr %21, align 4, !tbaa !18, !range !23, !noundef !24
  %23 = trunc i8 %22 to i1
  %24 = zext i1 %23 to i32
  %25 = load ptr, ptr %4, align 8, !tbaa !3
  %26 = getelementptr inbounds nuw %struct.sgraph, ptr %25, i32 0, i32 4
  %27 = load ptr, ptr %26, align 8, !tbaa !11
  %28 = load ptr, ptr %6, align 8, !tbaa !9
  %29 = getelementptr inbounds nuw %struct.sedge, ptr %28, i32 0, i32 3
  %30 = load i32, ptr %29, align 8, !tbaa !25
  %31 = sext i32 %30 to i64
  %32 = getelementptr inbounds %struct.snode, ptr %27, i64 %31
  %33 = getelementptr inbounds nuw %struct.snode, ptr %32, i32 0, i32 9
  %34 = load i8, ptr %33, align 4, !tbaa !18, !range !23, !noundef !24
  %35 = trunc i8 %34 to i1
  %36 = zext i1 %35 to i32
  %37 = icmp ne i32 %24, %36
  %38 = zext i1 %37 to i32
  store i32 %38, ptr %9, align 4, !tbaa !26
  call void @llvm.lifetime.start.p0(i64 8, ptr %10) #10
  %39 = load ptr, ptr %5, align 8, !tbaa !7
  %40 = getelementptr inbounds nuw %struct.cell, ptr %39, i32 0, i32 5
  %41 = getelementptr inbounds nuw %struct.boxf, ptr %40, i32 0, i32 1
  %42 = getelementptr inbounds nuw %struct.pointf_s, ptr %41, i32 0, i32 1
  %43 = load double, ptr %42, align 8, !tbaa !27
  %44 = load ptr, ptr %5, align 8, !tbaa !7
  %45 = getelementptr inbounds nuw %struct.cell, ptr %44, i32 0, i32 5
  %46 = getelementptr inbounds nuw %struct.boxf, ptr %45, i32 0, i32 0
  %47 = getelementptr inbounds nuw %struct.pointf_s, ptr %46, i32 0, i32 1
  %48 = load double, ptr %47, align 8, !tbaa !32
  %49 = fsub double %43, %48
  %50 = fsub double %49, 3.000000e+00
  %51 = fdiv double %50, 2.000000e+00
  store double %51, ptr %10, align 8, !tbaa !33
  call void @llvm.lifetime.start.p0(i64 8, ptr %11) #10
  %52 = load ptr, ptr %5, align 8, !tbaa !7
  %53 = getelementptr inbounds nuw %struct.cell, ptr %52, i32 0, i32 5
  %54 = getelementptr inbounds nuw %struct.boxf, ptr %53, i32 0, i32 1
  %55 = getelementptr inbounds nuw %struct.pointf_s, ptr %54, i32 0, i32 0
  %56 = load double, ptr %55, align 8, !tbaa !34
  %57 = load ptr, ptr %5, align 8, !tbaa !7
  %58 = getelementptr inbounds nuw %struct.cell, ptr %57, i32 0, i32 5
  %59 = getelementptr inbounds nuw %struct.boxf, ptr %58, i32 0, i32 0
  %60 = getelementptr inbounds nuw %struct.pointf_s, ptr %59, i32 0, i32 0
  %61 = load double, ptr %60, align 8, !tbaa !35
  %62 = fsub double %56, %61
  %63 = fsub double %62, 3.000000e+00
  %64 = fdiv double %63, 2.000000e+00
  store double %64, ptr %11, align 8, !tbaa !33
  call void @llvm.lifetime.start.p0(i64 8, ptr %12) #10
  %65 = load double, ptr %10, align 8, !tbaa !33
  %66 = load double, ptr %11, align 8, !tbaa !33
  %67 = call double @llvm.minnum.f64(double %65, double %66)
  store double %67, ptr %12, align 8, !tbaa !33
  store i32 0, ptr %7, align 4, !tbaa !26
  br label %68

68:                                               ; preds = %110, %3
  %69 = load i32, ptr %7, align 4, !tbaa !26
  %70 = load ptr, ptr %5, align 8, !tbaa !7
  %71 = getelementptr inbounds nuw %struct.cell, ptr %70, i32 0, i32 1
  %72 = load i32, ptr %71, align 4, !tbaa !36
  %73 = icmp slt i32 %69, %72
  br i1 %73, label %74, label %113

74:                                               ; preds = %68
  %75 = load ptr, ptr %5, align 8, !tbaa !7
  %76 = getelementptr inbounds nuw %struct.cell, ptr %75, i32 0, i32 2
  %77 = load i32, ptr %7, align 4, !tbaa !26
  %78 = sext i32 %77 to i64
  %79 = getelementptr inbounds [6 x ptr], ptr %76, i64 0, i64 %78
  %80 = load ptr, ptr %79, align 8, !tbaa !9
  store ptr %80, ptr %8, align 8, !tbaa !9
  %81 = load ptr, ptr %4, align 8, !tbaa !3
  %82 = getelementptr inbounds nuw %struct.sgraph, ptr %81, i32 0, i32 4
  %83 = load ptr, ptr %82, align 8, !tbaa !11
  %84 = load ptr, ptr %8, align 8, !tbaa !9
  %85 = getelementptr inbounds nuw %struct.sedge, ptr %84, i32 0, i32 2
  %86 = load i32, ptr %85, align 4, !tbaa !15
  %87 = sext i32 %86 to i64
  %88 = getelementptr inbounds %struct.snode, ptr %83, i64 %87
  %89 = getelementptr inbounds nuw %struct.snode, ptr %88, i32 0, i32 9
  %90 = load i8, ptr %89, align 4, !tbaa !18, !range !23, !noundef !24
  %91 = trunc i8 %90 to i1
  %92 = zext i1 %91 to i32
  %93 = load ptr, ptr %4, align 8, !tbaa !3
  %94 = getelementptr inbounds nuw %struct.sgraph, ptr %93, i32 0, i32 4
  %95 = load ptr, ptr %94, align 8, !tbaa !11
  %96 = load ptr, ptr %8, align 8, !tbaa !9
  %97 = getelementptr inbounds nuw %struct.sedge, ptr %96, i32 0, i32 3
  %98 = load i32, ptr %97, align 8, !tbaa !25
  %99 = sext i32 %98 to i64
  %100 = getelementptr inbounds %struct.snode, ptr %95, i64 %99
  %101 = getelementptr inbounds nuw %struct.snode, ptr %100, i32 0, i32 9
  %102 = load i8, ptr %101, align 4, !tbaa !18, !range !23, !noundef !24
  %103 = trunc i8 %102 to i1
  %104 = zext i1 %103 to i32
  %105 = icmp ne i32 %92, %104
  br i1 %105, label %107, label %106

106:                                              ; preds = %74
  br label %113

107:                                              ; preds = %74
  %108 = load ptr, ptr %8, align 8, !tbaa !9
  %109 = load double, ptr %12, align 8, !tbaa !33
  call void @updateWt(ptr noundef %108, double noundef %109)
  br label %110

110:                                              ; preds = %107
  %111 = load i32, ptr %7, align 4, !tbaa !26
  %112 = add nsw i32 %111, 1
  store i32 %112, ptr %7, align 4, !tbaa !26
  br label %68, !llvm.loop !37

113:                                              ; preds = %106, %68
  br label %114

114:                                              ; preds = %153, %113
  %115 = load i32, ptr %7, align 4, !tbaa !26
  %116 = load ptr, ptr %5, align 8, !tbaa !7
  %117 = getelementptr inbounds nuw %struct.cell, ptr %116, i32 0, i32 1
  %118 = load i32, ptr %117, align 4, !tbaa !36
  %119 = icmp slt i32 %115, %118
  br i1 %119, label %120, label %156

120:                                              ; preds = %114
  %121 = load ptr, ptr %5, align 8, !tbaa !7
  %122 = getelementptr inbounds nuw %struct.cell, ptr %121, i32 0, i32 2
  %123 = load i32, ptr %7, align 4, !tbaa !26
  %124 = sext i32 %123 to i64
  %125 = getelementptr inbounds [6 x ptr], ptr %122, i64 0, i64 %124
  %126 = load ptr, ptr %125, align 8, !tbaa !9
  store ptr %126, ptr %8, align 8, !tbaa !9
  %127 = load i32, ptr %9, align 4, !tbaa !26
  %128 = icmp ne i32 %127, 0
  br i1 %128, label %133, label %129

129:                                              ; preds = %120
  %130 = load ptr, ptr %8, align 8, !tbaa !9
  %131 = load ptr, ptr %6, align 8, !tbaa !9
  %132 = icmp eq ptr %130, %131
  br i1 %132, label %133, label %152

133:                                              ; preds = %129, %120
  %134 = load ptr, ptr %8, align 8, !tbaa !9
  %135 = load ptr, ptr %4, align 8, !tbaa !3
  %136 = getelementptr inbounds nuw %struct.sgraph, ptr %135, i32 0, i32 4
  %137 = load ptr, ptr %136, align 8, !tbaa !11
  %138 = load ptr, ptr %8, align 8, !tbaa !9
  %139 = getelementptr inbounds nuw %struct.sedge, ptr %138, i32 0, i32 2
  %140 = load i32, ptr %139, align 4, !tbaa !15
  %141 = sext i32 %140 to i64
  %142 = getelementptr inbounds %struct.snode, ptr %137, i64 %141
  %143 = getelementptr inbounds nuw %struct.snode, ptr %142, i32 0, i32 9
  %144 = load i8, ptr %143, align 4, !tbaa !18, !range !23, !noundef !24
  %145 = trunc i8 %144 to i1
  br i1 %145, label %146, label %148

146:                                              ; preds = %133
  %147 = load double, ptr %10, align 8, !tbaa !33
  br label %150

148:                                              ; preds = %133
  %149 = load double, ptr %11, align 8, !tbaa !33
  br label %150

150:                                              ; preds = %148, %146
  %151 = phi double [ %147, %146 ], [ %149, %148 ]
  call void @updateWt(ptr noundef %134, double noundef %151)
  br label %152

152:                                              ; preds = %150, %129
  br label %153

153:                                              ; preds = %152
  %154 = load i32, ptr %7, align 4, !tbaa !26
  %155 = add nsw i32 %154, 1
  store i32 %155, ptr %7, align 4, !tbaa !26
  br label %114, !llvm.loop !39

156:                                              ; preds = %114
  call void @llvm.lifetime.end.p0(i64 8, ptr %12) #10
  call void @llvm.lifetime.end.p0(i64 8, ptr %11) #10
  call void @llvm.lifetime.end.p0(i64 8, ptr %10) #10
  call void @llvm.lifetime.end.p0(i64 4, ptr %9) #10
  call void @llvm.lifetime.end.p0(i64 8, ptr %8) #10
  call void @llvm.lifetime.end.p0(i64 4, ptr %7) #10
  ret void
}