; Function Attrs: nofree norecurse nosync nounwind memory(readwrite, inaccessiblemem: none) uwtable
define void @updateWts(ptr noundef readonly captures(none) %0, ptr noundef readonly captures(none) %1, ptr noundef readonly captures(address) %2) local_unnamed_addr #0 {
  %4 = getelementptr inbounds nuw i8, ptr %0, i64 16
  %5 = load ptr, ptr %4, align 8, !tbaa !3
  %6 = getelementptr inbounds nuw i8, ptr %2, i64 12
  %7 = load i32, ptr %6, align 4, !tbaa !11
  %8 = sext i32 %7 to i64
  %9 = getelementptr inbounds %struct.snode, ptr %5, i64 %8, i32 9
  %10 = load i8, ptr %9, align 4, !tbaa !14, !range !19, !noundef !20
  %11 = getelementptr inbounds nuw i8, ptr %2, i64 16
  %12 = load i32, ptr %11, align 8, !tbaa !21
  %13 = sext i32 %12 to i64
  %14 = getelementptr inbounds %struct.snode, ptr %5, i64 %13, i32 9
  %15 = load i8, ptr %14, align 4, !tbaa !14, !range !19, !noundef !20
  %.not.not = icmp eq i8 %10, %15
  %16 = getelementptr inbounds nuw i8, ptr %1, i64 72
  %17 = getelementptr inbounds nuw i8, ptr %1, i64 88
  %18 = getelementptr inbounds nuw i8, ptr %1, i64 96
  %19 = load double, ptr %18, align 8, !tbaa !22
  %20 = getelementptr inbounds nuw i8, ptr %1, i64 80
  %21 = load double, ptr %20, align 8, !tbaa !27
  %22 = fsub double %19, %21
  %23 = fadd double %22, -3.000000e+00
  %24 = fmul double %23, 5.000000e-01
  %25 = load double, ptr %17, align 8, !tbaa !28
  %26 = load double, ptr %16, align 8, !tbaa !29
  %27 = fsub double %25, %26
  %28 = fadd double %27, -3.000000e+00
  %29 = fmul double %28, 5.000000e-01
  %30 = tail call double @llvm.minnum.f64(double %24, double %29)
  %31 = getelementptr inbounds nuw i8, ptr %1, i64 8
  %32 = getelementptr inbounds nuw i8, ptr %1, i64 4
  %33 = load i32, ptr %32, align 4, !tbaa !30
  %34 = icmp sgt i32 %33, 0
  br i1 %34, label %.lr.ph.preheader, label %._crit_edge

.lr.ph.preheader:                                 ; preds = %3
  %wide.trip.count = zext nneg i32 %33 to i64
  br label %.lr.ph

.lr.ph:                                           ; preds = %.lr.ph.preheader, %updateWt.exit
  %indvars.iv = phi i64 [ 0, %.lr.ph.preheader ], [ %indvars.iv.next, %updateWt.exit ]
  %35 = getelementptr inbounds nuw [6 x ptr], ptr %31, i64 0, i64 %indvars.iv
  %36 = load ptr, ptr %35, align 8, !tbaa !31
  %37 = getelementptr inbounds nuw i8, ptr %36, i64 12
  %38 = load i32, ptr %37, align 4, !tbaa !11
  %39 = sext i32 %38 to i64
  %40 = getelementptr inbounds %struct.snode, ptr %5, i64 %39, i32 9
  %41 = load i8, ptr %40, align 4, !tbaa !14, !range !19, !noundef !20
  %42 = getelementptr inbounds nuw i8, ptr %36, i64 16
  %43 = load i32, ptr %42, align 8, !tbaa !21
  %44 = sext i32 %43 to i64
  %45 = getelementptr inbounds %struct.snode, ptr %5, i64 %44, i32 9
  %46 = load i8, ptr %45, align 4, !tbaa !14, !range !19, !noundef !20
  %.not33 = icmp eq i8 %41, %46
  br i1 %.not33, label %._crit_edge.loopexit, label %47

47:                                               ; preds = %.lr.ph
  %48 = getelementptr inbounds nuw i8, ptr %36, i64 8
  %49 = load i32, ptr %48, align 8, !tbaa !32
  %50 = add nsw i32 %49, 1
  store i32 %50, ptr %48, align 8, !tbaa !32
  %51 = sitofp i32 %50 to double
  %52 = fcmp olt double %30, %51
  br i1 %52, label %53, label %updateWt.exit

53:                                               ; preds = %47
  store i32 0, ptr %48, align 8, !tbaa !32
  %54 = load double, ptr %36, align 8, !tbaa !33
  %55 = fadd double %54, 1.638400e+04
  store double %55, ptr %36, align 8, !tbaa !33
  br label %updateWt.exit

updateWt.exit:                                    ; preds = %47, %53
  %indvars.iv.next = add nuw nsw i64 %indvars.iv, 1
  %exitcond.not = icmp eq i64 %indvars.iv.next, %wide.trip.count
  br i1 %exitcond.not, label %._crit_edge43, label %.lr.ph, !llvm.loop !34

._crit_edge.loopexit:                             ; preds = %.lr.ph
  %56 = trunc nuw nsw i64 %indvars.iv to i32
  br label %._crit_edge

._crit_edge:                                      ; preds = %._crit_edge.loopexit, %3
  %.0.lcssa = phi i32 [ 0, %3 ], [ %56, %._crit_edge.loopexit ]
  %57 = icmp slt i32 %.0.lcssa, %33
  br i1 %57, label %.lr.ph42, label %._crit_edge43

.lr.ph42:                                         ; preds = %._crit_edge
  %58 = zext i32 %.0.lcssa to i64
  br i1 %.not.not, label %.lr.ph42.split, label %.lr.ph42.split.us

.lr.ph42.split.us:                                ; preds = %.lr.ph42, %updateWt.exit34.us
  %indvars.iv46 = phi i64 [ %indvars.iv.next47, %updateWt.exit34.us ], [ %58, %.lr.ph42 ]
  %59 = getelementptr inbounds nuw [6 x ptr], ptr %31, i64 0, i64 %indvars.iv46
  %60 = load ptr, ptr %59, align 8, !tbaa !31
  %61 = getelementptr inbounds nuw i8, ptr %60, i64 12
  %62 = load i32, ptr %61, align 4, !tbaa !11
  %63 = sext i32 %62 to i64
  %64 = getelementptr inbounds %struct.snode, ptr %5, i64 %63, i32 9
  %65 = load i8, ptr %64, align 4, !tbaa !14, !range !19, !noundef !20
  %66 = trunc nuw i8 %65 to i1
  %67 = select i1 %66, double %24, double %29
  %68 = getelementptr inbounds nuw i8, ptr %60, i64 8
  %69 = load i32, ptr %68, align 8, !tbaa !32
  %70 = add nsw i32 %69, 1
  store i32 %70, ptr %68, align 8, !tbaa !32
  %71 = sitofp i32 %70 to double
  %72 = fcmp olt double %67, %71
  br i1 %72, label %73, label %updateWt.exit34.us

73:                                               ; preds = %.lr.ph42.split.us
  store i32 0, ptr %68, align 8, !tbaa !32
  %74 = load double, ptr %60, align 8, !tbaa !33
  %75 = fadd double %74, 1.638400e+04
  store double %75, ptr %60, align 8, !tbaa !33
  br label %updateWt.exit34.us

updateWt.exit34.us:                               ; preds = %73, %.lr.ph42.split.us
  %indvars.iv.next47 = add nuw nsw i64 %indvars.iv46, 1
  %76 = trunc nuw i64 %indvars.iv.next47 to i32
  %77 = icmp sgt i32 %33, %76
  br i1 %77, label %.lr.ph42.split.us, label %._crit_edge43, !llvm.loop !36

.lr.ph42.split:                                   ; preds = %.lr.ph42, %updateWt.exit34
  %indvars.iv49 = phi i64 [ %indvars.iv.next50, %updateWt.exit34 ], [ %58, %.lr.ph42 ]
  %78 = getelementptr inbounds nuw [6 x ptr], ptr %31, i64 0, i64 %indvars.iv49
  %79 = load ptr, ptr %78, align 8, !tbaa !31
  %80 = icmp eq ptr %79, %2
  br i1 %80, label %81, label %updateWt.exit34

81:                                               ; preds = %.lr.ph42.split
  %82 = getelementptr inbounds nuw i8, ptr %79, i64 12
  %83 = load i32, ptr %82, align 4, !tbaa !11
  %84 = sext i32 %83 to i64
  %85 = getelementptr inbounds %struct.snode, ptr %5, i64 %84, i32 9
  %86 = load i8, ptr %85, align 4, !tbaa !14, !range !19, !noundef !20
  %87 = trunc nuw i8 %86 to i1
  %88 = select i1 %87, double %24, double %29
  %89 = getelementptr inbounds nuw i8, ptr %79, i64 8
  %90 = load i32, ptr %89, align 8, !tbaa !32
  %91 = add nsw i32 %90, 1
  store i32 %91, ptr %89, align 8, !tbaa !32
  %92 = sitofp i32 %91 to double
  %93 = fcmp olt double %88, %92
  br i1 %93, label %94, label %updateWt.exit34

94:                                               ; preds = %81
  store i32 0, ptr %89, align 8, !tbaa !32
  %95 = load double, ptr %79, align 8, !tbaa !33
  %96 = fadd double %95, 1.638400e+04
  store double %96, ptr %79, align 8, !tbaa !33
  br label %updateWt.exit34

updateWt.exit34:                                  ; preds = %94, %81, %.lr.ph42.split
  %indvars.iv.next50 = add nuw nsw i64 %indvars.iv49, 1
  %97 = trunc nuw i64 %indvars.iv.next50 to i32
  %98 = icmp sgt i32 %33, %97
  br i1 %98, label %.lr.ph42.split, label %._crit_edge43, !llvm.loop !36

._crit_edge43:                                    ; preds = %updateWt.exit, %updateWt.exit34.us, %updateWt.exit34, %._crit_edge
  ret void
}